A51 MACRO ASSEMBLER  JOGO                                                                 06/01/2017 18:25:34 PAGE     1


MACRO ASSEMBLER A51 V8.2.5.0
OBJECT MODULE PLACED IN .\Objects\Jogo.obj
ASSEMBLER INVOKED BY: C:\Keil_v5\C51\BIN\A51.EXE Jogo.a51 SET(SMALL) DEBUG PRINT(.\Listings\Jogo.lst) OBJECT(.\Objects\J
                      ogo.obj) EP

LOC  OBJ            LINE     SOURCE

                       1     ;*******************************************************************************

                       2     ; Projeto 3 de Arquitetura de Computadores

                       3     ; Jogo para fugir de objetos (Assembly)

                       4     ; Manuel Joaquim Andrade Sousa Perez, 2029015

                       5     ; Cláudio Ascenso Sardinha, 2030215

                       6     ;*******************************************************************************

                       7     

                       8     ;*******************************************************************************

                       9     ;       Portas

  00B0                10     INPUT EQU P3

  00A0                11     DisplayX EQU P2

  0090                12     DisplayY EQU P1

                      13     ;*******************************************************************************

                      14     ; Constantes auxiliares (microcontrolador)

  0064                15     STACK_POINTER_INICIAL EQU 100                                           ; Posição inicial d
                             a stack pointer

  003C                16     TEMPO_T0_HIGH EQU 0x3C                                                                  ; B
                             yte mais significativo do timer 0 - 50 ms (12MHz)

  00AF                17     TEMPO_T0_LOW EQU 0xAF                                                                      
                                  ; Byte menos significativo do timer 0 - 50 ms (12MHz)

  0070                18     TEMPO_T1 EQU 0x70                                                                          
                                                  ; 0x70 Tempo do timer 1 - 112 us (12MHz)

  00FF                19     VAZIO EQU 0xFF                                                                             
                                                                  ; Porta vazia (tudo desligado)

  008F                20     INTERRUPCOES_SETUP EQU 143                                              ; Estado das interr
                             upções ao ser corrido o programa

                      21     ;*******************************************************************************

                      22     ;       Constantes auxiliares (jogo)

  0005                23     IMAGEM_GAMEOVER EQU 5                                                                   ; I
                             D da imagem do gameover

  0006                24     IMAGEM_VICTORY EQU 6                                                                       
                                          ; ID da imagem da vitória

  0007                25     NR_IMAGENS EQU 7                                                                           
                                                          ; Número de imagens

  0007                26     NR_LINHAS EQU 7                                                                            
                                                          ; Número total de linhas

  0006                27     POS_JOGADOR EQU 6                                                                          
                                                  ; Linha do jogador (última linha)

  0004                28     POS_JOGADOR_INICIAL EQU 4                                                               ; P
                             osição inicial do jogador (no meio da linha)

  00FE                29     LINHAATIVA_INICIAL EQU 11111110b                                        ; Seleção da primei
                             ra linha

  0001                30     NIVEL_INICIAL EQU 1                                                                        
                                                  ; Nível inicial (nível 1)

  0004                31     VIDAS_INICIAL EQU 4                                                                        
                                                  ; Nº de vidas para o jogador (3 vidas)

  0014                32     DIFICULDADE1 EQU 20                                                                        
                                          ; Velocidade a que descem os obstáculos (dificuldade)

  0012                33     DIFICULDADE2 EQU 18                                                                        
                                          ; Velocidade a que descem os obstáculos (dificuldade)

  000F                34     DIFICULDADE3 EQU 15                                                                        
                                          ; Velocidade a que descem os obstáculos (dificuldade)

  000A                35     DIFICULDADE4 EQU 10                                                                        
                                          ; Velocidade a que descem os obstáculos (dificuldade)

  0007                36     DIFICULDADE5 EQU 7                                                                         
                                          ; Velocidade a que descem os obstáculos (dificuldade)

  0001                37     LIMITE_X_DIREITA EQU 1                                                                     
A51 MACRO ASSEMBLER  JOGO                                                                 06/01/2017 18:25:34 PAGE     2

                                          ;  Limite direito do display em relação ao X

  0010                38     LIMITE_X_ESQUERDA EQU 16                                                                ; L
                             imite esquerdo do display em relação ao X

  0000                39     LINHA_VAZIA EQU 0                                                                          
                                                          ; Representa uma linha vazia (imagem com os LEDs todos desligados)

                      40     ;*******************************************************************************

                      41     ;       Variáveis do jogo

  0028                42     LinhaAtual EQU 40                                                                          
                                                                  ; Variável para guardar o número de linha

  0029                43     VidasRestantes EQU 41                                                                      
                                          ; Vidas restantes do jogador

  002A                44     TempoObstaculos EQU 42                                                                     
                                  ; Tempo (restante) antes de descerem (novamente) os obstáculos

  002B                45     DificuldadeAtual EQU 43                                                                    
                                          ; Dificuldade atual do jogo (tempo estipulado para a frequência com que os obstáculos vão descendo)

  002C                46     ObstaculosInicio EQU 44                                                                    
                                          ; Limite superior dos obstáculos

  002D                47     NivelAtual EQU 45                                                                          
                                                                  ; Nível atual do jogo (que representa a imagem do vetor a ser desenhada)

  002E                48     ImagemAtual EQU 46                                                                         
                                                          ;                       

  002F                49     LinhaAtiva EQU 47                                                                          
                                                                  ;

  0032                50     NovaImagem EQU 50                                                                          
                                                  ; 

  0046                51     ImagemDisplay EQU 70                                                                       
                                          ; Display com 7 valores

                      52     ;*******************************************************************************

                      53     ; Primeira instrução, após o reset do microcontrolador (rotina principal)

----                  54     CSEG AT 0000h

0000 804E             55     JMP Principal

                      56     ;*******************************************************************************

                      57     ;*******************************************************************************

                      58     ; Rotina de tratamento da interrupção externa 0 (mover jogador para a esquerda)

----                  59     CSEG AT 0003h

0003 01C7             60     JMP MoverJogadorEsquerda

                      61     ;*******************************************************************************

                      62     ;*******************************************************************************

                      63     ; Rotina de tratamento da interrupção externa 1 (mover jogador para a direita)

----                  64     CSEG AT 0013h

0013 01E4             65     JMP MoverJogadorDireita

                      66     ;*******************************************************************************

                      67     ; Rotina de tratamento da interrupção do temporizador 0

----                  68     CSEG AT 000bh

000B 2101             69     JMP VerificarObstaculos

                      70     ;*******************************************************************************

                      71     ;*******************************************************************************

                      72     ; Rotina de tratamento da interrupção do temporizado 1 (varrimento do display)

----                  73     CSEG AT 001bh

001B 2132             74     JMP VarrerDisplay

                      75     ;***************************************************************************

                      76     ;***************************************************************************

                      77     

                      78     ;*******************************************************************************

                      79     ; Instruções do programa principal

----                  80     CSEG AT 050h

0050                  81     Principal:

0050 758164           82         MOV SP, #STACK_POINTER_INICIAL                              ; Endereço inicial da stack
                              pointer

0053 752800           83         MOV LinhaAtual, #0                                                                     
                                  ; Mostrar a primeira linha no display

0056 752FFE           84         MOV LinhaAtiva, #LINHAATIVA_INICIAL                 ; A primeira linha do display é a p
                             rimeira a ser desenhada

                      85     

0059                  86         LigarInterrupcoes:

                      87             

A51 MACRO ASSEMBLER  JOGO                                                                 06/01/2017 18:25:34 PAGE     3

                      88                     ; Timer 1 no modo 2 (contador de 8 bits com auto-reload)

                      89                     ; Timer 0 no modo 1 (contador de 16 bits)

0059 758921           90             MOV TMOD, #00100001b                                                               
                                  

                      91                     

005C 758C3C           92             MOV TH0, #TEMPO_T0_HIGH                                                         ; T
                             imer 0 = 50 ms em 50 ms

005F 758AAF           93             MOV TL0, #TEMPO_T0_LOW                                                          ; (
                             este timer vai ser usado para puxar os obstáculos para baixo)

                      94                     ; (sendo este ajustado de nível para nível)

                      95                     

0062 758D70           96             MOV TH1, #TEMPO_T1                                                                 
                                                  ; Timer 1 = 1 segundo

0065 758B70           97             MOV TL1, #TEMPO_T1                                                                 
                                                  ; (este timer vai ser usado para o varrimento do display)

                      98             

0068 75B800           99                     MOV IP, #0                                                                 
                                                                                          ; Não altera as prioridades das interrupções

006B 75A88F          100             MOV IE, #INTERRUPCOES_SETUP                                     ; Activa as interru
                             pções

006E D288            101             SETB IT0                                                                           
                                                                                          ; Ext0 detectada na transição descendente

0070 D28A            102             SETB IT1                                                                           
                                                                                          ; Ext1 detectada na transição descendente

0072 D28C            103             SETB TR0                                                                           
                                                                                          ; Inicia timer 0

0074 D28E            104             SETB TR1                                                                           
                                                                                          ; Inicia timer 1

0076 75B0FF          105             MOV INPUT, #VAZIO                                                                  
                                                          ; Limpeza da porta de entrada (P3)

                     106     

0079                 107         Principal_Jogo:

0079 752904          108                     MOV VidasRestantes, #VIDAS_INICIAL              ; As vidas do jogador são i
                             nicializadas

007C 752D01          109                     MOV NivelAtual, #NIVEL_INICIAL                                   ; Iniciali
                             zação do nível               

                     110             

007F 752B14          111             MOV DificuldadeAtual, #DIFICULDADE1                     ; Muda para a dificuldade d
                             o nível 1

0082 3170            112             CALL Jogar                                                                         
                                                                                  ; Entra no nível 1

                     113             

0084 752B12          114             MOV DificuldadeAtual, #DIFICULDADE2                     ; Muda para a dificuldade d
                             o nível 2

0087 3170            115             CALL Jogar                                                                         
                                                                                  ; Entra no nível 2

                     116             

0089 752B0F          117             MOV DificuldadeAtual, #DIFICULDADE3                     ; Muda para a dificuldade d
                             o nível 3

008C 3170            118             CALL Jogar                                                                         
                                                                                  ; Entra no nível 3

                     119             

008E 752B0A          120             MOV DificuldadeAtual, #DIFICULDADE4                     ; Muda para a dificuldade d
                             o nível 4

0091 3170            121             CALL Jogar                                                                         
                                                                                  ; Entra no nível 4

                     122                     

0093 752B07          123             MOV DificuldadeAtual, #DIFICULDADE5                     ; Muda para a dificuldade d
                             o nível 5

0096 3170            124             CALL Jogar                                                                         
                                                                                  ; Entra no nível 5

                     125                     

                     126                     ; Caso tenha passado pelos níveis todos

                     127                     ; Passa para o modo vitória

0098 2165            128             JMP Victory

                     129     ;*******************************************************************************

A51 MACRO ASSEMBLER  JOGO                                                                 06/01/2017 18:25:34 PAGE     4

                     130     

                     131     

009A                 132     DesenharNovaImagem:

009A C0E0            133         PUSH ACC                                                                               
                                                                                  ; Guarda o conteúddo do registo ACC

009C C0F0            134         PUSH B                                                                                 
                                                                                                  ; Guarda o conteúdo do registo B

009E C000            135         PUSH 0                                                                                 
                                                                                                  ; Guarda o conteúdo do registo R0

00A0 C001            136         PUSH 1                                                                                 
                                                                                                  ; Guarda o conteúdo do registo R1

00A2 C002            137         PUSH 2                                                                                 
                                                                                                  ; Guarda o conteúdo do registo R2

                     138     

00A4 E532            139         MOV A, NovaImagem                                                                      
                                                          ; Busca o ID da imagem a ser desenhada (NovaImagem)

00A6 75F007          140         MOV B, #NR_LINHAS                                                                      
                                                  ; Busca o número de linhas

00A9 15F0            141         DEC B                                                                                  
                                                                                                  ; Decrementa o último 
                             valor (visto que não queremos que faça o display na última linha - linha do jogador)

00AB A4              142         MUL AB                                                                                 
                                                                                                  ; Multiplica o ID da i
                             magem pelo tamanho da linha (de forma a obtermos a imagem pretendida)

                     143             

00AC 7846            144         MOV R0, #ImagemDisplay                                                                 
                                          ; R0 aponta para o display

00AE F9              145         MOV R1, A                                                                              
                                                                                  ; Guarda o deslocamento

00AF 7A07            146         MOV R2, #NR_LINHAS                                                                     
                                                  ; Número de linhas do display

00B1 1A              147         DEC R2                                                                                 
                                                                                                  ; Decrementa o número 
                             de linhas (visto que não queremos que seja feito o desenho na última linha - linha do jogador)

00B2 90019B          148         MOV DPTR, #Imagens                                                                     
                                                  ; Endereço base das imagens

                     149         

                     150             ; Ciclo para desenhar no display

00B5                 151         CicloDesenhar:                                                                         
                                                                          

00B5 93              152             MOVC A, @A+DPTR                                                                    
                                                  ; Busca uma linha da imagem

00B6 F6              153             MOV @R0, A                                                                         
                                                                          ; Desenha essa linha no display

00B7 08              154             INC R0                                                                             
                                                                                          ; Passa para a próxima linha no display

00B8 09              155             INC R1                                                                             
                                                                                          ; Passa para o próxima linha na tabela

00B9 E9              156             MOV A, R1                       

00BA DAF9            157             DJNZ R2, CicloDesenhar                                                             
                                          ; Verifica se já desenhou em todas as linhas (exceto na linha do jogador)

                     158     

00BC D002            159         POP 2                                                                                  
                                                                                                  ; Repõe o conteúdo do registo R2

00BE D001            160         POP 1                                                                                  
                                                                                                  ; Repõe o conteúdo do registo R1

00C0 D000            161         POP 0                                                                                  
                                                                                                  ; Repõe o conteúdo do registo R0

00C2 D0F0            162         POP B                                                                                  
                                                                                                  ; Repõe o conteúdo do registo B

00C4 D0E0            163         POP ACC                                                                                
                                                                                          ; Repõe o conteúddo do registo ACC

00C6 22              164         RET

                     165     

                     166     ;*******************************************************************************        

                     167     ;*******************************************************************************

A51 MACRO ASSEMBLER  JOGO                                                                 06/01/2017 18:25:34 PAGE     5

                     168     ; Rotinas de interrupção (EXT0 e EXT1) que controlam o movimento do jogador

                     169     ;*******************************************************************************

00C7                 170     MoverJogadorEsquerda:

00C7 C0E0            171             PUSH ACC                                                                           
                                                                                                          ; Guarda o conteúddo do registo ACC

00C9 C0F0            172             PUSH B                                                                             
                                                                                                                  ; Guarda o conteúddo do registo B

00CB C000            173             PUSH 0                                                                             
                                                                                                                  ; Guarda o conteúddo do registo R0

                     174                             

00CD 7406            175             MOV A,#POS_JOGADOR                                                                 
                                                                  ; Aponta para a posição do jogador

00CF 75F046          176             MOV B,#ImagemDisplay                                                               
                                                                  ; Aponta para a imagem apresentada no display

00D2 25F0            177             ADD A,B                                                                            
                                                                                                                  ; Aponta a linha do jogador

00D4 F8              178             MOV R0,A                                                                           
                                                                                                          

00D5 E6              179             MOV A,@R0                                                                          
                                                                                                          ; Guarda a posição do jogador no registo A

                     180             

                     181             ; Caso o jogador não esteja no limite esquerdo do display,

                     182             ; Move para a esquerda

00D6 B41002          183             CJNE A, #LIMITE_X_ESQUERDA, MoverEsquerda       

                     184             

                     185             ; Caso contrário,

                     186             ; Não faz mais nada nesta rotina

00D9 8002            187         JMP FimMoverJogadorEsquerda

                     188         

00DB                 189         MoverEsquerda:

00DB 23              190             RL A

00DC F6              191             MOV @R0,A

                     192                     

00DD                 193         FimMoverJogadorEsquerda:

00DD D000            194             POP 0

00DF D0F0            195             POP B

00E1 D0E0            196             POP ACC

00E3 32              197             RETI

                     198                     

00E4                 199     MoverJogadorDireita:

00E4 C0E0            200             PUSH ACC

00E6 C0F0            201             PUSH B

00E8 C000            202             PUSH 0

                     203     

00EA 7406            204             MOV A,#POS_JOGADOR

00EC 75F046          205             MOV B,#ImagemDisplay

00EF 25F0            206             ADD A,B

00F1 F8              207             MOV R0,A 

00F2 E6              208             MOV A,@R0                                       ;Posição do joagador 

00F3 B40102          209             CJNE A, #LIMITE_X_DIREITA, MoverDireita

00F6 8002            210             JMP FimMoverJogadorDireita

                     211         

00F8                 212             MoverDireita:

00F8 03              213             RR A

00F9 F6              214             MOV @R0,A

                     215                     

00FA                 216         FimMoverJogadorDireita:

00FA D000            217             POP 0

00FC D0F0            218             POP B

00FE D0E0            219             POP ACC

0100 32              220             RETI

                     221     ;*******************************************************************************

                     222     ;*******************************************************************************

                     223      

                     224     ;*******************************************************************************

0101                 225     VerificarObstaculos:

A51 MACRO ASSEMBLER  JOGO                                                                 06/01/2017 18:25:34 PAGE     6

0101 C0E0            226         PUSH ACC                    ; Guarda o conteúddo do registo ACC

0103 C000            227             PUSH 0

0105 C001            228             PUSH 1

0107 C0F0            229         PUSH B

                     230         

0109 758C3C          231         MOV TH0, #TEMPO_T0_HIGH;            ; Timer 0 = 50 ms

010C 758AAF          232         MOV TL0, #TEMPO_T0_LOW;             ; Verifica se já passou 1 segundo

010F D52A17          233         DJNZ TempoObstaculos, fimVerificarObstaculos

                     234         

0112                 235         ReinicializarDificuldade:

0112 852B2A          236             MOV TempoObstaculos, DificuldadeAtual

                     237             

0115                 238         VerificarColisoes:

0115 7446            239                     MOV A, #ImagemDisplay

0117 2406            240                     ADD A, #POS_JOGADOR

0119 F5F0            241             MOV B, A

011B 15F0            242             DEC B

                     243             

011D F8              244             MOV R0, A

011E E6              245             MOV A, @R0

011F A8F0            246             MOV R0, B

0121 86F0            247             MOV B, @R0

                     248                     

0123 55F0            249                     ANL A, B

0125 6002            250                     JZ MoverObstaculos

                     251             

0127                 252             DecrementarVidas:

0127 1529            253             DEC VidasRestantes

                     254     

0129                 255             MoverObstaculos:

                     256     ;;;;;;;;;;;;;;;;

                     257     ;;;;;;;;;;;;;;;

                     258     ;;;;;;;;;;;;;;

                     259                     

0129                 260     FimVerificarObstaculos:

0129 D0F0            261         POP B

012B D001            262         POP 1

012D D000            263         POP 0

012F D0E0            264         POP ACC                             ; Repõe o conteúddo do registo ACC

0131 32              265         RETI

                     266     ;*******************************************************************************

                     267     

                     268     ;*******************************************************************************

                     269     ;*******************************************************************************

0132                 270     VarrerDisplay:

0132 C0E0            271         PUSH ACC                    ; Guarda o conteúdo do registo A

0134 C000            272         PUSH 0                              ; Guarda o conteúdo do registo R0

                     273     

0136 7446            274             MOV A, #ImagemDisplay           ; Apontador para a primeira linha

0138 2528            275             ADD A, LinhaAtual                       ; Apontador para a linha a mostrar no displ
                             ay

013A F8              276             MOV R0, A                       ; Apontador para a linha do display

                     277         

013B E52F            278         MOV A, LinhaAtiva

                     279             

013D 7590FF          280             MOV P1, #VAZIO          ; Desliga a selecção de todas as linhas

0140 86A0            281             MOV P2, @R0                     ; Actualiza a informação da coluna

0142 F590            282             MOV P1, A                       ; Selecciona a linha

                     283     

0144 0528            284             INC LinhaAtual                  ; Passa para a próxima linha

0146 23              285         RL A

0147 F52F            286         MOV LinhaAtiva, A

0149 E528            287         MOV A, LinhaAtual

014B B40706          288             CJNE A, #NR_LINHAS, FimVarrerDisplay

014E 752800          289             MOV LinhaAtual, #0                      ; Próxima linha a mostrar

0151 752FFE          290         MOV LinhaAtiva, #LINHAATIVA_INICIAL

A51 MACRO ASSEMBLER  JOGO                                                                 06/01/2017 18:25:34 PAGE     7

                     291         

0154                 292         FimVarrerDisplay:

0154 D000            293             POP 0                           ; Repõe o conteúdo do registo R0

0156 D0E0            294             POP ACC                         ; Repõe o conteúdo do registo A

0158 32              295             RETI

                     296     ;*******************************************************************************

                     297     ;*******************************************************************************

0159                 298     DesligarInterrupcoes:

0159 C28C            299         CLR TR0

015B 22              300         RET

                     301     ;*******************************************************************************

                     302     ;*******************************************************************************

015C                 303     GameOver:

015C 753205          304         MOV NovaImagem, #IMAGEM_GAMEOVER

015F 119A            305         CALL DesenharNovaImagem

0161 3159            306         CALL DesligarInterrupcoes

0163 8009            307         JMP EndLoop

                     308     

0165                 309     Victory:

0165 753206          310         MOV NovaImagem, #IMAGEM_VICTORY

0168 119A            311         CALL DesenharNovaImagem

016A 3159            312         CALL DesligarInterrupcoes

016C 8000            313         JMP EndLoop

                     314     

016E 80FE            315     EndLoop: JMP EndLoop

                     316     ;*******************************************************************************

                     317     ;*******************************************************************************

0170                 318     Jogar:

0170 852B2A          319         MOV TempoObstaculos, DificuldadeAtual

                     320         

0173                 321         InicializarJogador:

0173 7446            322             MOV A, #ImagemDisplay           ; Apontador para a primeira linha

0175 2406            323             ADD A, #POS_JOGADOR                     ; Apontador para a linha a mostrar no displ
                             ay

0177 F8              324             MOV R0, A

0178 7604            325             MOV @R0, #POS_JOGADOR_INICIAL 

                     326             

017A                 327         InicializarObstaculos:

017A 752C00          328             MOV ObstaculosInicio, #0

017D A82D            329             MOV R0, NivelAtual

017F 18              330             DEC R0

0180 8832            331             MOV NovaImagem, R0

0182 119A            332             CALL DesenharNovaImagem

                     333         

0184                 334         CicloJogar:

0184 E529            335             MOV A, VidasRestantes

0186 600A            336             JZ fimCicloJogar

0188 E52C            337             MOV A, ObstaculosInicio

018A 75F007          338             MOV B, #NR_LINHAS

018D 15F0            339             DEC B

018F B5F0F2          340             CJNE A, B, CicloJogar

                     341             

0192                 342         fimCicloJogar:    

0192 E529            343             MOV A, VidasRestantes

0194 7002            344             JNZ ProximoNivel

0196 80C4            345             JMP GameOver

                     346         

0198                 347         ProximoNivel:

0198 052D            348             INC NivelAtual

019A 22              349             RET

                     350     ;*******************************************************************************

                     351     ;*******************************************************************************

                     352     ; Imagens a mostrar no display

019B                 353     Imagens:

019B 03020401        354     DB 3, 2, 4, 1, 5, 2             ; Nível 1

019F 0502                    
A51 MACRO ASSEMBLER  JOGO                                                                 06/01/2017 18:25:34 PAGE     8

01A1 04030206        355     DB 4, 3, 2, 6, 0, 0             ; Nível 2

01A5 0000                    
01A7 07060206        356     DB 7, 6, 2, 6, 0, 0             ; Nível 3

01AB 0000                    
01AD 08020306        357     DB 8, 2, 3, 6, 0, 0             ; Nível 4

01B1 0000                    
01B3 01040406        358     DB 1, 4, 4, 6, 0, 0             ; Nível 5  

01B7 0000                    
01B9 110A040A        359     DB 17,10,4,10,17,0      ; Game over

01BD 1100                    
01BF 1F1F1F1F        360     DB 31,31,31,31,31,31    ; Vitória

01C3 1F1F                    
                     361     ;**************************************************************************

                     362     

                     363     END

A51 MACRO ASSEMBLER  JOGO                                                                 06/01/2017 18:25:34 PAGE     9

SYMBOL TABLE LISTING
------ ----- -------


N A M E                   T Y P E  V A L U E   ATTRIBUTES

ACC. . . . . . . . . . .  D ADDR   00E0H   A   
B. . . . . . . . . . . .  D ADDR   00F0H   A   
CICLODESENHAR. . . . . .  C ADDR   00B5H   A   
CICLOJOGAR . . . . . . .  C ADDR   0184H   A   
DECREMENTARVIDAS . . . .  C ADDR   0127H   A   
DESENHARNOVAIMAGEM . . .  C ADDR   009AH   A   
DESLIGARINTERRUPCOES . .  C ADDR   0159H   A   
DIFICULDADE1 . . . . . .  N NUMB   0014H   A   
DIFICULDADE2 . . . . . .  N NUMB   0012H   A   
DIFICULDADE3 . . . . . .  N NUMB   000FH   A   
DIFICULDADE4 . . . . . .  N NUMB   000AH   A   
DIFICULDADE5 . . . . . .  N NUMB   0007H   A   
DIFICULDADEATUAL . . . .  N NUMB   002BH   A   
DISPLAYX . . . . . . . .  D ADDR   00A0H   A   
DISPLAYY . . . . . . . .  D ADDR   0090H   A   
ENDLOOP. . . . . . . . .  C ADDR   016EH   A   
FIMCICLOJOGAR. . . . . .  C ADDR   0192H   A   
FIMMOVERJOGADORDIREITA .  C ADDR   00FAH   A   
FIMMOVERJOGADORESQUERDA.  C ADDR   00DDH   A   
FIMVARRERDISPLAY . . . .  C ADDR   0154H   A   
FIMVERIFICAROBSTACULOS .  C ADDR   0129H   A   
GAMEOVER . . . . . . . .  C ADDR   015CH   A   
IE . . . . . . . . . . .  D ADDR   00A8H   A   
IMAGEMATUAL. . . . . . .  N NUMB   002EH   A   
IMAGEMDISPLAY. . . . . .  N NUMB   0046H   A   
IMAGEM_GAMEOVER. . . . .  N NUMB   0005H   A   
IMAGEM_VICTORY . . . . .  N NUMB   0006H   A   
IMAGENS. . . . . . . . .  C ADDR   019BH   A   
INICIALIZARJOGADOR . . .  C ADDR   0173H   A   
INICIALIZAROBSTACULOS. .  C ADDR   017AH   A   
INPUT. . . . . . . . . .  D ADDR   00B0H   A   
INTERRUPCOES_SETUP . . .  N NUMB   008FH   A   
IP . . . . . . . . . . .  D ADDR   00B8H   A   
IT0. . . . . . . . . . .  B ADDR   0088H.0 A   
IT1. . . . . . . . . . .  B ADDR   0088H.2 A   
JOGAR. . . . . . . . . .  C ADDR   0170H   A   
LIGARINTERRUPCOES. . . .  C ADDR   0059H   A   
LIMITE_X_DIREITA . . . .  N NUMB   0001H   A   
LIMITE_X_ESQUERDA. . . .  N NUMB   0010H   A   
LINHAATIVA . . . . . . .  N NUMB   002FH   A   
LINHAATIVA_INICIAL . . .  N NUMB   00FEH   A   
LINHAATUAL . . . . . . .  N NUMB   0028H   A   
LINHA_VAZIA. . . . . . .  N NUMB   0000H   A   
MOVERDIREITA . . . . . .  C ADDR   00F8H   A   
MOVERESQUERDA. . . . . .  C ADDR   00DBH   A   
MOVERJOGADORDIREITA. . .  C ADDR   00E4H   A   
MOVERJOGADORESQUERDA . .  C ADDR   00C7H   A   
MOVEROBSTACULOS. . . . .  C ADDR   0129H   A   
NIVELATUAL . . . . . . .  N NUMB   002DH   A   
NIVEL_INICIAL. . . . . .  N NUMB   0001H   A   
NOVAIMAGEM . . . . . . .  N NUMB   0032H   A   
NR_IMAGENS . . . . . . .  N NUMB   0007H   A   
NR_LINHAS. . . . . . . .  N NUMB   0007H   A   
OBSTACULOSINICIO . . . .  N NUMB   002CH   A   
P1 . . . . . . . . . . .  D ADDR   0090H   A   
P2 . . . . . . . . . . .  D ADDR   00A0H   A   
P3 . . . . . . . . . . .  D ADDR   00B0H   A   
POS_JOGADOR. . . . . . .  N NUMB   0006H   A   
POS_JOGADOR_INICIAL. . .  N NUMB   0004H   A   
PRINCIPAL. . . . . . . .  C ADDR   0050H   A   
A51 MACRO ASSEMBLER  JOGO                                                                 06/01/2017 18:25:34 PAGE    10

PRINCIPAL_JOGO . . . . .  C ADDR   0079H   A   
PROXIMONIVEL . . . . . .  C ADDR   0198H   A   
REINICIALIZARDIFICULDADE  C ADDR   0112H   A   
SP . . . . . . . . . . .  D ADDR   0081H   A   
STACK_POINTER_INICIAL. .  N NUMB   0064H   A   
TEMPOOBSTACULOS. . . . .  N NUMB   002AH   A   
TEMPO_T0_HIGH. . . . . .  N NUMB   003CH   A   
TEMPO_T0_LOW . . . . . .  N NUMB   00AFH   A   
TEMPO_T1 . . . . . . . .  N NUMB   0070H   A   
TH0. . . . . . . . . . .  D ADDR   008CH   A   
TH1. . . . . . . . . . .  D ADDR   008DH   A   
TL0. . . . . . . . . . .  D ADDR   008AH   A   
TL1. . . . . . . . . . .  D ADDR   008BH   A   
TMOD . . . . . . . . . .  D ADDR   0089H   A   
TR0. . . . . . . . . . .  B ADDR   0088H.4 A   
TR1. . . . . . . . . . .  B ADDR   0088H.6 A   
VARRERDISPLAY. . . . . .  C ADDR   0132H   A   
VAZIO. . . . . . . . . .  N NUMB   00FFH   A   
VERIFICARCOLISOES. . . .  C ADDR   0115H   A   
VERIFICAROBSTACULOS. . .  C ADDR   0101H   A   
VICTORY. . . . . . . . .  C ADDR   0165H   A   
VIDASRESTANTES . . . . .  N NUMB   0029H   A   
VIDAS_INICIAL. . . . . .  N NUMB   0004H   A   


REGISTER BANK(S) USED: 0 


ASSEMBLY COMPLETE.  0 WARNING(S), 0 ERROR(S)
